; Function Attrs: nounwind uwtable
define hidden i32 @mbedtls_ssl_tls13_derive_resumption_master_secret(i32 noundef %0, ptr noundef %1, ptr noundef readonly captures(none) %2, i64 noundef %3, ptr noundef %4) local_unnamed_addr #0 {
  %6 = alloca [64 x i8], align 16
  %trunc = trunc i32 %0 to i8
  %switch.tableidx = add i8 %trunc, -3
  %7 = icmp ult i8 %switch.tableidx, 16
  br i1 %7, label %switch.hole_check, label %8

8:                                                ; preds = %switch.hole_check, %5
  %9 = and i32 %0, 255
  %10 = icmp eq i32 %9, 19
  %11 = select i1 %10, i64 64, i64 0
  br label %13

switch.hole_check:                                ; preds = %5
  %switch.maskindex = zext nneg i8 %switch.tableidx to i16
  %switch.shifted = lshr i16 -6169, %switch.maskindex
  %switch.lobit = trunc i16 %switch.shifted to i1
  br i1 %switch.lobit, label %switch.lookup, label %8

switch.lookup:                                    ; preds = %switch.hole_check
  %12 = zext nneg i8 %switch.tableidx to i64
  %switch.gep = getelementptr inbounds nuw [16 x i64], ptr @switch.table.mbedtls_ssl_tls13_compute_application_transform.13, i64 0, i64 %12
  %switch.load = load i64, ptr %switch.gep, align 8
  br label %13

13:                                               ; preds = %switch.lookup, %8
  %14 = phi i64 [ %11, %8 ], [ %switch.load, %switch.lookup ]
  %15 = and i32 %0, 2130706432
  %16 = icmp eq i32 %15, 33554432
  br i1 %16, label %17, label %22

17:                                               ; preds = %13
  call void @llvm.lifetime.start.p0(i64 64, ptr nonnull %6) #8
  %18 = icmp ugt i64 %3, 64
  br i1 %18, label %mbedtls_ssl_tls13_derive_secret.exit, label %19

19:                                               ; preds = %17
  %20 = getelementptr inbounds nuw i8, ptr %4, i64 192
  call void @llvm.memcpy.p0.p0.i64(ptr nonnull align 16 %6, ptr align 1 %2, i64 %3, i1 false)
  %21 = call i32 @mbedtls_ssl_tls13_hkdf_expand_label(i32 noundef %0, ptr noundef %1, i64 noundef %14, ptr noundef nonnull readonly getelementptr inbounds nuw (i8, ptr @mbedtls_ssl_tls13_labels, i64 124), i64 noundef 10, ptr noundef nonnull %6, i64 noundef %3, ptr noundef nonnull %20, i64 noundef %14)
  br label %mbedtls_ssl_tls13_derive_secret.exit

mbedtls_ssl_tls13_derive_secret.exit:             ; preds = %17, %19
  %.1.i = phi i32 [ %21, %19 ], [ -27648, %17 ]
  call void @llvm.lifetime.end.p0(i64 64, ptr nonnull %6) #8
  br label %22

22:                                               ; preds = %mbedtls_ssl_tls13_derive_secret.exit, %13
  %.0 = phi i32 [ -27648, %13 ], [ %.1.i, %mbedtls_ssl_tls13_derive_secret.exit ]
  ret i32 %.0
}